target datalayout = "e-m:e-p270:32:32-p271:32:32-p272:64:64-i64:64-i128:128-f80:128-n8:16:32:64-S128"
target triple = "x86_64-pc-linux-gnu"

@.str = private unnamed_addr constant [9 x i8] c"priv_len\00", align 1

; Function Attrs: nounwind uwtable
define internal i32 @dh_ffc_params_fromdata(ptr noundef %0, ptr noundef %1) #0 {
  %3 = alloca ptr, align 8
  %4 = alloca ptr, align 8
  %5 = alloca i32, align 4
  %6 = alloca ptr, align 8
  store ptr %0, ptr %3, align 8, !tbaa !3
  store ptr %1, ptr %4, align 8, !tbaa !8
  call void @llvm.lifetime.start.p0(i64 4, ptr %5) #4
  call void @llvm.lifetime.start.p0(i64 8, ptr %6) #4
  %7 = load ptr, ptr %3, align 8, !tbaa !3
  %8 = call ptr @ossl_dh_get0_params(ptr noundef %7)
  store ptr %8, ptr %6, align 8, !tbaa !12
  %9 = load ptr, ptr %6, align 8, !tbaa !12
  %10 = load ptr, ptr %4, align 8, !tbaa !8
  %11 = call i32 @ossl_ffc_params_fromdata(ptr noundef %9, ptr noundef %10)
  store i32 %11, ptr %5, align 4, !tbaa !14
  %12 = load i32, ptr %5, align 4, !tbaa !14
  %13 = icmp ne i32 %12, 0
  br i1 %13, label %14, label %16

14:                                               ; preds = %2
  %15 = load ptr, ptr %3, align 8, !tbaa !3
  call void @ossl_dh_cache_named_group(ptr noundef %15)
  br label %16

16:                                               ; preds = %14, %2
  %17 = load i32, ptr %5, align 4, !tbaa !14
  call void @llvm.lifetime.end.p0(i64 8, ptr %6) #4
  call void @llvm.lifetime.end.p0(i64 4, ptr %5) #4
  ret i32 %17
}

; Function Attrs: nounwind uwtable
define i32 @ossl_dh_params_fromdata(ptr noundef %0, ptr noundef %1) #0 {
  %3 = alloca i32, align 4
  %4 = alloca ptr, align 8
  %5 = alloca ptr, align 8
  %6 = alloca ptr, align 8
  %7 = alloca i64, align 8
  %8 = alloca i32, align 4
  store ptr %0, ptr %4, align 8, !tbaa !3
  store ptr %1, ptr %5, align 8, !tbaa !8
  call void @llvm.lifetime.start.p0(i64 8, ptr %6) #4
  call void @llvm.lifetime.start.p0(i64 8, ptr %7) #4
  %9 = load ptr, ptr %4, align 8, !tbaa !3
  %10 = load ptr, ptr %5, align 8, !tbaa !8
  %11 = call i32 @dh_ffc_params_fromdata(ptr noundef %9, ptr noundef %10)
  %12 = icmp ne i32 %11, 0
  br i1 %12, label %14, label %13

13:                                               ; preds = %2
  store i32 0, ptr %3, align 4
  store i32 1, ptr %8, align 4
  br label %30

14:                                               ; preds = %2
  %15 = load ptr, ptr %5, align 8, !tbaa !8
  %16 = call ptr @OSSL_PARAM_locate_const(ptr noundef %15, ptr noundef @.str)
  store ptr %16, ptr %6, align 8, !tbaa !8
  %17 = load ptr, ptr %6, align 8, !tbaa !8
  %18 = icmp ne ptr %17, null
  br i1 %18, label %19, label %29

19:                                               ; preds = %14
  %20 = load ptr, ptr %6, align 8, !tbaa !8
  %21 = call i32 @OSSL_PARAM_get_long(ptr noundef %20, ptr noundef %7)
  %22 = icmp ne i32 %21, 0
  br i1 %22, label %23, label %28

23:                                               ; preds = %19
  %24 = load ptr, ptr %4, align 8, !tbaa !3
  %25 = load i64, ptr %7, align 8, !tbaa !10
  %26 = call i32 @DH_set_length(ptr noundef %24, i64 noundef %25)
  %27 = icmp ne i32 %26, 0
  br i1 %27, label %29, label %28

28:                                               ; preds = %23, %19
  store i32 0, ptr %3, align 4
  store i32 1, ptr %8, align 4
  br label %30

29:                                               ; preds = %23, %14
  store i32 1, ptr %3, align 4
  store i32 1, ptr %8, align 4
  br label %30

30:                                               ; preds = %29, %28, %13
  call void @llvm.lifetime.end.p0(i64 8, ptr %7) #4
  call void @llvm.lifetime.end.p0(i64 8, ptr %6) #4
  %31 = load i32, ptr %3, align 4
  ret i32 %31
}