; Function Attrs: nounwind uwtable
define range(i32 0, 2) i32 @ossl_dh_params_fromdata(ptr noundef %0, ptr noundef %1) local_unnamed_addr #0 {
  %3 = alloca i64, align 8
  call void @llvm.lifetime.start.p0(i64 8, ptr nonnull %3) #3
  %4 = tail call ptr @ossl_dh_get0_params(ptr noundef %0) #3
  %5 = tail call i32 @ossl_ffc_params_fromdata(ptr noundef %4, ptr noundef %1) #3
  %.not.i = icmp eq i32 %5, 0
  br i1 %.not.i, label %dh_ffc_params_fromdata.exit.thread, label %6

6:                                                ; preds = %2
  tail call void @ossl_dh_cache_named_group(ptr noundef %0) #3
  %7 = tail call ptr @OSSL_PARAM_locate_const(ptr noundef %1, ptr noundef nonnull @.str) #3
  %.not7 = icmp eq ptr %7, null
  br i1 %.not7, label %13, label %8

8:                                                ; preds = %6
  %9 = call i32 @OSSL_PARAM_get_long(ptr noundef nonnull %7, ptr noundef nonnull %3) #3
  %.not8 = icmp eq i32 %9, 0
  br i1 %.not8, label %dh_ffc_params_fromdata.exit.thread, label %10

10:                                               ; preds = %8
  %11 = load i64, ptr %3, align 8, !tbaa !3
  %12 = call i32 @DH_set_length(ptr noundef %0, i64 noundef %11) #3
  %.not9 = icmp eq i32 %12, 0
  br i1 %.not9, label %dh_ffc_params_fromdata.exit.thread, label %13

13:                                               ; preds = %10, %6
  br label %dh_ffc_params_fromdata.exit.thread

dh_ffc_params_fromdata.exit.thread:               ; preds = %2, %8, %10, %13
  %.0 = phi i32 [ 1, %13 ], [ 0, %10 ], [ 0, %8 ], [ 0, %2 ]
  call void @llvm.lifetime.end.p0(i64 8, ptr nonnull %3) #3
  ret i32 %.0
}